target datalayout = "e-m:e-p270:32:32-p271:32:32-p272:64:64-i64:64-i128:128-f80:128-n8:16:32:64-S128"
target triple = "x86_64-pc-linux-gnu"

%"class.std::__cxx11::basic_string" = type { %"struct.std::__cxx11::basic_string<char>::_Alloc_hider", i64, %union.anon }
%"struct.std::__cxx11::basic_string<char>::_Alloc_hider" = type { ptr }
%union.anon = type { i64, [8 x i8] }
%"class.gmx::analysismodules::(anonymous namespace)::IndexFileWriterModule" = type <{ %"class.gmx::AnalysisDataModuleSerial", %"class.std::__cxx11::basic_string", %"class.std::vector.142", ptr, i32, i32, i8, [7 x i8] }>
%"class.gmx::AnalysisDataModuleSerial" = type { %"class.gmx::IAnalysisDataModule" }
%"class.gmx::IAnalysisDataModule" = type { ptr }
%"class.std::vector.142" = type { %"struct.std::_Vector_base.143" }
%"struct.std::_Vector_base.143" = type { %"struct.std::_Vector_base<gmx::analysismodules::(anonymous namespace)::IndexFileWriterModule::GroupInfo, std::allocator<gmx::analysismodules::(anonymous namespace)::IndexFileWriterModule::GroupInfo>>::_Vector_impl" }
%"struct.std::_Vector_base<gmx::analysismodules::(anonymous namespace)::IndexFileWriterModule::GroupInfo, std::allocator<gmx::analysismodules::(anonymous namespace)::IndexFileWriterModule::GroupInfo>>::_Vector_impl" = type { %"struct.std::_Vector_base<gmx::analysismodules::(anonymous namespace)::IndexFileWriterModule::GroupInfo, std::allocator<gmx::analysismodules::(anonymous namespace)::IndexFileWriterModule::GroupInfo>>::_Vector_impl_data" }
%"struct.std::_Vector_base<gmx::analysismodules::(anonymous namespace)::IndexFileWriterModule::GroupInfo, std::allocator<gmx::analysismodules::(anonymous namespace)::IndexFileWriterModule::GroupInfo>>::_Vector_impl_data" = type { ptr, ptr, ptr }

@.str.117 = private unnamed_addr constant [2 x i8] c"\0A\00", align 1

; Function Attrs: mustprogress uwtable
define internal void @_ZN3gmx15analysismodules12_GLOBAL__N_121IndexFileWriterModule9closeFileEv(ptr noundef nonnull align 8 dereferenceable(81) %0) #0 align 2 {
  %2 = alloca ptr, align 8
  store ptr %0, ptr %2, align 8
  %3 = load ptr, ptr %2, align 8
  %4 = getelementptr inbounds %"class.gmx::analysismodules::(anonymous namespace)::IndexFileWriterModule", ptr %3, i32 0, i32 3
  %5 = load ptr, ptr %4, align 8
  %6 = icmp ne ptr %5, null
  br i1 %6, label %7, label %12

7:                                                ; preds = %1
  %8 = getelementptr inbounds %"class.gmx::analysismodules::(anonymous namespace)::IndexFileWriterModule", ptr %3, i32 0, i32 3
  %9 = load ptr, ptr %8, align 8
  %10 = call noundef i32 @_Z14gmx_fio_fcloseP8_IO_FILE(ptr noundef %9)
  %11 = getelementptr inbounds %"class.gmx::analysismodules::(anonymous namespace)::IndexFileWriterModule", ptr %3, i32 0, i32 3
  store ptr null, ptr %11, align 8
  br label %12

12:                                               ; preds = %7, %1
  ret void
}

; Function Attrs: mustprogress uwtable
define internal void @_ZN3gmx15analysismodules12_GLOBAL__N_121IndexFileWriterModule12dataFinishedEv(ptr noundef nonnull align 8 dereferenceable(81) %0) unnamed_addr #0 align 2 {
  %2 = alloca ptr, align 8
  store ptr %0, ptr %2, align 8
  %3 = load ptr, ptr %2, align 8
  %4 = getelementptr inbounds %"class.gmx::analysismodules::(anonymous namespace)::IndexFileWriterModule", ptr %3, i32 0, i32 3
  %5 = load ptr, ptr %4, align 8
  %6 = icmp ne ptr %5, null
  br i1 %6, label %7, label %11

7:                                                ; preds = %1
  %8 = getelementptr inbounds %"class.gmx::analysismodules::(anonymous namespace)::IndexFileWriterModule", ptr %3, i32 0, i32 3
  %9 = load ptr, ptr %8, align 8
  %10 = call i32 (ptr, ptr, ...) @fprintf(ptr noundef %9, ptr noundef @.str.117) #13
  br label %11

11:                                               ; preds = %7, %1
  call void @_ZN3gmx15analysismodules12_GLOBAL__N_121IndexFileWriterModule9closeFileEv(ptr noundef nonnull align 8 dereferenceable(81) %3)
  ret void
}