; Function Attrs: mustprogress uwtable
define internal void @_ZN3gmx15analysismodules12_GLOBAL__N_121IndexFileWriterModule12dataFinishedEv(ptr nocapture noundef nonnull align 8 dereferenceable(81) %0) unnamed_addr #0 align 2 {
  %2 = getelementptr inbounds i8, ptr %0, i64 64
  %3 = load ptr, ptr %2, align 8
  %.not = icmp eq ptr %3, null
  br i1 %.not, label %_ZN3gmx15analysismodules12_GLOBAL__N_121IndexFileWriterModule9closeFileEv.exit, label %4

4:                                                ; preds = %1
  %fputc = tail call i32 @fputc(i32 10, ptr nonnull %3)
  %.pr = load ptr, ptr %2, align 8
  %.not.i = icmp eq ptr %.pr, null
  br i1 %.not.i, label %_ZN3gmx15analysismodules12_GLOBAL__N_121IndexFileWriterModule9closeFileEv.exit, label %5

5:                                                ; preds = %4
  %6 = tail call noundef i32 @_Z14gmx_fio_fcloseP8_IO_FILE(ptr noundef nonnull %.pr)
  store ptr null, ptr %2, align 8
  br label %_ZN3gmx15analysismodules12_GLOBAL__N_121IndexFileWriterModule9closeFileEv.exit

_ZN3gmx15analysismodules12_GLOBAL__N_121IndexFileWriterModule9closeFileEv.exit: ; preds = %1, %4, %5
  ret void
}